target datalayout = "e-m:e-p270:32:32-p271:32:32-p272:64:64-i64:64-i128:128-f80:128-n8:16:32:64-S128"
target triple = "x86_64-pc-linux-gnu"

%struct._zval_struct = type { %union._zend_value, %union.anon, %union.anon.3 }
%union._zend_value = type { i64 }
%union.anon = type { i32 }
%union.anon.3 = type { i32 }
%struct._zend_refcounted_h = type { i32, %union.anon.4 }
%union.anon.4 = type { i32 }
%struct._zend_optimizer_ctx = type { ptr, ptr, ptr, i64, i64 }
%struct.anon.1 = type { i8, i8, %union.anon.2 }
%union.anon.2 = type { i16 }
%struct._zend_arena = type { ptr, ptr, ptr }
%struct._zend_refcounted = type { %struct._zend_refcounted_h }

; Function Attrs: alwaysinline nounwind uwtable
define internal i32 @zend_gc_addref(ptr noundef %0) #1 {
  %2 = alloca ptr, align 8
  store ptr %0, ptr %2, align 8, !tbaa !35
  br label %3

3:                                                ; preds = %1
  br label %4

4:                                                ; preds = %3
  %5 = load ptr, ptr %2, align 8, !tbaa !35
  %6 = getelementptr inbounds nuw %struct._zend_refcounted_h, ptr %5, i32 0, i32 0
  %7 = load i32, ptr %6, align 4, !tbaa !37
  %8 = add i32 %7, 1
  store i32 %8, ptr %6, align 4, !tbaa !37
  ret i32 %8
}

; Function Attrs: alwaysinline nounwind uwtable
define internal i32 @zval_addref_p(ptr noundef %0) #1 {
  %2 = alloca ptr, align 8
  store ptr %0, ptr %2, align 8, !tbaa !9
  %3 = load ptr, ptr %2, align 8, !tbaa !9
  %4 = getelementptr inbounds nuw %struct._zval_struct, ptr %3, i32 0, i32 1
  %5 = getelementptr inbounds nuw %struct.anon.1, ptr %4, i32 0, i32 1
  %6 = load i8, ptr %5, align 1, !tbaa !17
  %7 = zext i8 %6 to i32
  %8 = icmp ne i32 %7, 0
  call void @llvm.assume(i1 %8)
  %9 = load ptr, ptr %2, align 8, !tbaa !9
  %10 = getelementptr inbounds nuw %struct._zval_struct, ptr %9, i32 0, i32 0
  %11 = load ptr, ptr %10, align 8, !tbaa !17
  %12 = getelementptr inbounds nuw %struct._zend_refcounted, ptr %11, i32 0, i32 0
  %13 = call i32 @zend_gc_addref(ptr noundef %12)
  ret i32 %13
}

; Function Attrs: alwaysinline nounwind uwtable
define internal ptr @zend_arena_alloc(ptr noundef %0, i64 noundef %1) #1 {
  %3 = alloca ptr, align 8
  %4 = alloca i64, align 8
  %5 = alloca ptr, align 8
  %6 = alloca ptr, align 8
  %7 = alloca i64, align 8
  %8 = alloca ptr, align 8
  store ptr %0, ptr %3, align 8, !tbaa !18
  store i64 %1, ptr %4, align 8, !tbaa !20
  call void @llvm.lifetime.start.p0(i64 8, ptr %5) #13
  %9 = load ptr, ptr %3, align 8, !tbaa !18
  %10 = load ptr, ptr %9, align 8, !tbaa !21
  store ptr %10, ptr %5, align 8, !tbaa !21
  call void @llvm.lifetime.start.p0(i64 8, ptr %6) #13
  %11 = load ptr, ptr %5, align 8, !tbaa !21
  %12 = getelementptr inbounds nuw %struct._zend_arena, ptr %11, i32 0, i32 0
  %13 = load ptr, ptr %12, align 8, !tbaa !22
  store ptr %13, ptr %6, align 8, !tbaa !25
  %14 = load i64, ptr %4, align 8, !tbaa !20
  %15 = add i64 %14, 8
  %16 = sub i64 %15, 1
  %17 = and i64 %16, -8
  store i64 %17, ptr %4, align 8, !tbaa !20
  %18 = load i64, ptr %4, align 8, !tbaa !20
  %19 = load ptr, ptr %5, align 8, !tbaa !21
  %20 = getelementptr inbounds nuw %struct._zend_arena, ptr %19, i32 0, i32 1
  %21 = load ptr, ptr %20, align 8, !tbaa !26
  %22 = load ptr, ptr %6, align 8, !tbaa !25
  %23 = ptrtoint ptr %21 to i64
  %24 = ptrtoint ptr %22 to i64
  %25 = sub i64 %23, %24
  %26 = icmp ule i64 %18, %25
  %27 = xor i1 %26, true
  %28 = xor i1 %27, true
  %29 = zext i1 %28 to i32
  %30 = sext i32 %29 to i64
  %31 = call i64 @llvm.expect.i64(i64 %30, i64 1)
  %32 = icmp ne i64 %31, 0
  br i1 %32, label %33, label %39

33:                                               ; preds = %2
  %34 = load ptr, ptr %6, align 8, !tbaa !25
  %35 = load i64, ptr %4, align 8, !tbaa !20
  %36 = getelementptr inbounds nuw i8, ptr %34, i64 %35
  %37 = load ptr, ptr %5, align 8, !tbaa !21
  %38 = getelementptr inbounds nuw %struct._zend_arena, ptr %37, i32 0, i32 0
  store ptr %36, ptr %38, align 8, !tbaa !22
  br label %315

39:                                               ; preds = %2
  call void @llvm.lifetime.start.p0(i64 8, ptr %7) #13
  %40 = load i64, ptr %4, align 8, !tbaa !20
  %41 = add i64 %40, 24
  %42 = load ptr, ptr %5, align 8, !tbaa !21
  %43 = getelementptr inbounds nuw %struct._zend_arena, ptr %42, i32 0, i32 1
  %44 = load ptr, ptr %43, align 8, !tbaa !26
  %45 = load ptr, ptr %5, align 8, !tbaa !21
  %46 = ptrtoint ptr %44 to i64
  %47 = ptrtoint ptr %45 to i64
  %48 = sub i64 %46, %47
  %49 = icmp ugt i64 %41, %48
  %50 = xor i1 %49, true
  %51 = xor i1 %50, true
  %52 = zext i1 %51 to i32
  %53 = sext i32 %52 to i64
  %54 = call i64 @llvm.expect.i64(i64 %53, i64 0)
  %55 = icmp ne i64 %54, 0
  br i1 %55, label %56, label %59

56:                                               ; preds = %39
  %57 = load i64, ptr %4, align 8, !tbaa !20
  %58 = add i64 %57, 24
  br label %67

59:                                               ; preds = %39
  %60 = load ptr, ptr %5, align 8, !tbaa !21
  %61 = getelementptr inbounds nuw %struct._zend_arena, ptr %60, i32 0, i32 1
  %62 = load ptr, ptr %61, align 8, !tbaa !26
  %63 = load ptr, ptr %5, align 8, !tbaa !21
  %64 = ptrtoint ptr %62 to i64
  %65 = ptrtoint ptr %63 to i64
  %66 = sub i64 %64, %65
  br label %67

67:                                               ; preds = %59, %56
  %68 = phi i64 [ %58, %56 ], [ %66, %59 ]
  store i64 %68, ptr %7, align 8, !tbaa !20
  call void @llvm.lifetime.start.p0(i64 8, ptr %8) #13
  %69 = load i64, ptr %7, align 8, !tbaa !20
  %70 = call i1 @llvm.is.constant.i64(i64 %69)
  br i1 %70, label %71, label %292

71:                                               ; preds = %67
  %72 = load i64, ptr %7, align 8, !tbaa !20
  %73 = icmp ule i64 %72, 8
  br i1 %73, label %74, label %76

74:                                               ; preds = %71
  %75 = call noalias ptr @_emalloc_8()
  br label %290

76:                                               ; preds = %71
  %77 = load i64, ptr %7, align 8, !tbaa !20
  %78 = icmp ule i64 %77, 16
  br i1 %78, label %79, label %81

79:                                               ; preds = %76
  %80 = call noalias ptr @_emalloc_16()
  br label %288

81:                                               ; preds = %76
  %82 = load i64, ptr %7, align 8, !tbaa !20
  %83 = icmp ule i64 %82, 24
  br i1 %83, label %84, label %86

84:                                               ; preds = %81
  %85 = call noalias ptr @_emalloc_24()
  br label %286

86:                                               ; preds = %81
  %87 = load i64, ptr %7, align 8, !tbaa !20
  %88 = icmp ule i64 %87, 32
  br i1 %88, label %89, label %91

89:                                               ; preds = %86
  %90 = call noalias ptr @_emalloc_32()
  br label %284

91:                                               ; preds = %86
  %92 = load i64, ptr %7, align 8, !tbaa !20
  %93 = icmp ule i64 %92, 40
  br i1 %93, label %94, label %96

94:                                               ; preds = %91
  %95 = call noalias ptr @_emalloc_40()
  br label %282

96:                                               ; preds = %91
  %97 = load i64, ptr %7, align 8, !tbaa !20
  %98 = icmp ule i64 %97, 48
  br i1 %98, label %99, label %101

99:                                               ; preds = %96
  %100 = call noalias ptr @_emalloc_48()
  br label %280

101:                                              ; preds = %96
  %102 = load i64, ptr %7, align 8, !tbaa !20
  %103 = icmp ule i64 %102, 56
  br i1 %103, label %104, label %106

104:                                              ; preds = %101
  %105 = call noalias ptr @_emalloc_56()
  br label %278

106:                                              ; preds = %101
  %107 = load i64, ptr %7, align 8, !tbaa !20
  %108 = icmp ule i64 %107, 64
  br i1 %108, label %109, label %111

109:                                              ; preds = %106
  %110 = call noalias ptr @_emalloc_64()
  br label %276

111:                                              ; preds = %106
  %112 = load i64, ptr %7, align 8, !tbaa !20
  %113 = icmp ule i64 %112, 80
  br i1 %113, label %114, label %116

114:                                              ; preds = %111
  %115 = call noalias ptr @_emalloc_80()
  br label %274

116:                                              ; preds = %111
  %117 = load i64, ptr %7, align 8, !tbaa !20
  %118 = icmp ule i64 %117, 96
  br i1 %118, label %119, label %121

119:                                              ; preds = %116
  %120 = call noalias ptr @_emalloc_96()
  br label %272

121:                                              ; preds = %116
  %122 = load i64, ptr %7, align 8, !tbaa !20
  %123 = icmp ule i64 %122, 112
  br i1 %123, label %124, label %126

124:                                              ; preds = %121
  %125 = call noalias ptr @_emalloc_112()
  br label %270

126:                                              ; preds = %121
  %127 = load i64, ptr %7, align 8, !tbaa !20
  %128 = icmp ule i64 %127, 128
  br i1 %128, label %129, label %131

129:                                              ; preds = %126
  %130 = call noalias ptr @_emalloc_128()
  br label %268

131:                                              ; preds = %126
  %132 = load i64, ptr %7, align 8, !tbaa !20
  %133 = icmp ule i64 %132, 160
  br i1 %133, label %134, label %136

134:                                              ; preds = %131
  %135 = call noalias ptr @_emalloc_160()
  br label %266

136:                                              ; preds = %131
  %137 = load i64, ptr %7, align 8, !tbaa !20
  %138 = icmp ule i64 %137, 192
  br i1 %138, label %139, label %141

139:                                              ; preds = %136
  %140 = call noalias ptr @_emalloc_192()
  br label %264

141:                                              ; preds = %136
  %142 = load i64, ptr %7, align 8, !tbaa !20
  %143 = icmp ule i64 %142, 224
  br i1 %143, label %144, label %146

144:                                              ; preds = %141
  %145 = call noalias ptr @_emalloc_224()
  br label %262

146:                                              ; preds = %141
  %147 = load i64, ptr %7, align 8, !tbaa !20
  %148 = icmp ule i64 %147, 256
  br i1 %148, label %149, label %151

149:                                              ; preds = %146
  %150 = call noalias ptr @_emalloc_256()
  br label %260

151:                                              ; preds = %146
  %152 = load i64, ptr %7, align 8, !tbaa !20
  %153 = icmp ule i64 %152, 320
  br i1 %153, label %154, label %156

154:                                              ; preds = %151
  %155 = call noalias ptr @_emalloc_320()
  br label %258

156:                                              ; preds = %151
  %157 = load i64, ptr %7, align 8, !tbaa !20
  %158 = icmp ule i64 %157, 384
  br i1 %158, label %159, label %161

159:                                              ; preds = %156
  %160 = call noalias ptr @_emalloc_384()
  br label %256

161:                                              ; preds = %156
  %162 = load i64, ptr %7, align 8, !tbaa !20
  %163 = icmp ule i64 %162, 448
  br i1 %163, label %164, label %166

164:                                              ; preds = %161
  %165 = call noalias ptr @_emalloc_448()
  br label %254

166:                                              ; preds = %161
  %167 = load i64, ptr %7, align 8, !tbaa !20
  %168 = icmp ule i64 %167, 512
  br i1 %168, label %169, label %171

169:                                              ; preds = %166
  %170 = call noalias ptr @_emalloc_512()
  br label %252

171:                                              ; preds = %166
  %172 = load i64, ptr %7, align 8, !tbaa !20
  %173 = icmp ule i64 %172, 640
  br i1 %173, label %174, label %176

174:                                              ; preds = %171
  %175 = call noalias ptr @_emalloc_640()
  br label %250

176:                                              ; preds = %171
  %177 = load i64, ptr %7, align 8, !tbaa !20
  %178 = icmp ule i64 %177, 768
  br i1 %178, label %179, label %181

179:                                              ; preds = %176
  %180 = call noalias ptr @_emalloc_768()
  br label %248

181:                                              ; preds = %176
  %182 = load i64, ptr %7, align 8, !tbaa !20
  %183 = icmp ule i64 %182, 896
  br i1 %183, label %184, label %186

184:                                              ; preds = %181
  %185 = call noalias ptr @_emalloc_896()
  br label %246

186:                                              ; preds = %181
  %187 = load i64, ptr %7, align 8, !tbaa !20
  %188 = icmp ule i64 %187, 1024
  br i1 %188, label %189, label %191

189:                                              ; preds = %186
  %190 = call noalias ptr @_emalloc_1024()
  br label %244

191:                                              ; preds = %186
  %192 = load i64, ptr %7, align 8, !tbaa !20
  %193 = icmp ule i64 %192, 1280
  br i1 %193, label %194, label %196

194:                                              ; preds = %191
  %195 = call noalias ptr @_emalloc_1280()
  br label %242

196:                                              ; preds = %191
  %197 = load i64, ptr %7, align 8, !tbaa !20
  %198 = icmp ule i64 %197, 1536
  br i1 %198, label %199, label %201

199:                                              ; preds = %196
  %200 = call noalias ptr @_emalloc_1536()
  br label %240

201:                                              ; preds = %196
  %202 = load i64, ptr %7, align 8, !tbaa !20
  %203 = icmp ule i64 %202, 1792
  br i1 %203, label %204, label %206

204:                                              ; preds = %201
  %205 = call noalias ptr @_emalloc_1792()
  br label %238

206:                                              ; preds = %201
  %207 = load i64, ptr %7, align 8, !tbaa !20
  %208 = icmp ule i64 %207, 2048
  br i1 %208, label %209, label %211

209:                                              ; preds = %206
  %210 = call noalias ptr @_emalloc_2048()
  br label %236

211:                                              ; preds = %206
  %212 = load i64, ptr %7, align 8, !tbaa !20
  %213 = icmp ule i64 %212, 2560
  br i1 %213, label %214, label %216

214:                                              ; preds = %211
  %215 = call noalias ptr @_emalloc_2560()
  br label %234

216:                                              ; preds = %211
  %217 = load i64, ptr %7, align 8, !tbaa !20
  %218 = icmp ule i64 %217, 3072
  br i1 %218, label %219, label %221

219:                                              ; preds = %216
  %220 = call noalias ptr @_emalloc_3072()
  br label %232

221:                                              ; preds = %216
  %222 = load i64, ptr %7, align 8, !tbaa !20
  %223 = icmp ule i64 %222, 2093056
  br i1 %223, label %224, label %227

224:                                              ; preds = %221
  %225 = load i64, ptr %7, align 8, !tbaa !20
  %226 = call noalias ptr @_emalloc_large(i64 noundef %225) #14
  br label %230

227:                                              ; preds = %221
  %228 = load i64, ptr %7, align 8, !tbaa !20
  %229 = call noalias ptr @_emalloc_huge(i64 noundef %228) #14
  br label %230

230:                                              ; preds = %227, %224
  %231 = phi ptr [ %226, %224 ], [ %229, %227 ]
  br label %232

232:                                              ; preds = %230, %219
  %233 = phi ptr [ %220, %219 ], [ %231, %230 ]
  br label %234

234:                                              ; preds = %232, %214
  %235 = phi ptr [ %215, %214 ], [ %233, %232 ]
  br label %236

236:                                              ; preds = %234, %209
  %237 = phi ptr [ %210, %209 ], [ %235, %234 ]
  br label %238

238:                                              ; preds = %236, %204
  %239 = phi ptr [ %205, %204 ], [ %237, %236 ]
  br label %240

240:                                              ; preds = %238, %199
  %241 = phi ptr [ %200, %199 ], [ %239, %238 ]
  br label %242

242:                                              ; preds = %240, %194
  %243 = phi ptr [ %195, %194 ], [ %241, %240 ]
  br label %244

244:                                              ; preds = %242, %189
  %245 = phi ptr [ %190, %189 ], [ %243, %242 ]
  br label %246

246:                                              ; preds = %244, %184
  %247 = phi ptr [ %185, %184 ], [ %245, %244 ]
  br label %248

248:                                              ; preds = %246, %179
  %249 = phi ptr [ %180, %179 ], [ %247, %246 ]
  br label %250

250:                                              ; preds = %248, %174
  %251 = phi ptr [ %175, %174 ], [ %249, %248 ]
  br label %252

252:                                              ; preds = %250, %169
  %253 = phi ptr [ %170, %169 ], [ %251, %250 ]
  br label %254

254:                                              ; preds = %252, %164
  %255 = phi ptr [ %165, %164 ], [ %253, %252 ]
  br label %256

256:                                              ; preds = %254, %159
  %257 = phi ptr [ %160, %159 ], [ %255, %254 ]
  br label %258

258:                                              ; preds = %256, %154
  %259 = phi ptr [ %155, %154 ], [ %257, %256 ]
  br label %260

260:                                              ; preds = %258, %149
  %261 = phi ptr [ %150, %149 ], [ %259, %258 ]
  br label %262

262:                                              ; preds = %260, %144
  %263 = phi ptr [ %145, %144 ], [ %261, %260 ]
  br label %264

264:                                              ; preds = %262, %139
  %265 = phi ptr [ %140, %139 ], [ %263, %262 ]
  br label %266

266:                                              ; preds = %264, %134
  %267 = phi ptr [ %135, %134 ], [ %265, %264 ]
  br label %268

268:                                              ; preds = %266, %129
  %269 = phi ptr [ %130, %129 ], [ %267, %266 ]
  br label %270

270:                                              ; preds = %268, %124
  %271 = phi ptr [ %125, %124 ], [ %269, %268 ]
  br label %272

272:                                              ; preds = %270, %119
  %273 = phi ptr [ %120, %119 ], [ %271, %270 ]
  br label %274

274:                                              ; preds = %272, %114
  %275 = phi ptr [ %115, %114 ], [ %273, %272 ]
  br label %276

276:                                              ; preds = %274, %109
  %277 = phi ptr [ %110, %109 ], [ %275, %274 ]
  br label %278

278:                                              ; preds = %276, %104
  %279 = phi ptr [ %105, %104 ], [ %277, %276 ]
  br label %280

280:                                              ; preds = %278, %99
  %281 = phi ptr [ %100, %99 ], [ %279, %278 ]
  br label %282

282:                                              ; preds = %280, %94
  %283 = phi ptr [ %95, %94 ], [ %281, %280 ]
  br label %284

284:                                              ; preds = %282, %89
  %285 = phi ptr [ %90, %89 ], [ %283, %282 ]
  br label %286

286:                                              ; preds = %284, %84
  %287 = phi ptr [ %85, %84 ], [ %285, %284 ]
  br label %288

288:                                              ; preds = %286, %79
  %289 = phi ptr [ %80, %79 ], [ %287, %286 ]
  br label %290

290:                                              ; preds = %288, %74
  %291 = phi ptr [ %75, %74 ], [ %289, %288 ]
  br label %295

292:                                              ; preds = %67
  %293 = load i64, ptr %7, align 8, !tbaa !20
  %294 = call noalias ptr @_emalloc(i64 noundef %293) #14
  br label %295

295:                                              ; preds = %292, %290
  %296 = phi ptr [ %291, %290 ], [ %294, %292 ]
  store ptr %296, ptr %8, align 8, !tbaa !21
  %297 = load ptr, ptr %8, align 8, !tbaa !21
  %298 = getelementptr inbounds nuw i8, ptr %297, i64 24
  store ptr %298, ptr %6, align 8, !tbaa !25
  %299 = load ptr, ptr %8, align 8, !tbaa !21
  %300 = getelementptr inbounds nuw i8, ptr %299, i64 24
  %301 = load i64, ptr %4, align 8, !tbaa !20
  %302 = getelementptr inbounds nuw i8, ptr %300, i64 %301
  %303 = load ptr, ptr %8, align 8, !tbaa !21
  %304 = getelementptr inbounds nuw %struct._zend_arena, ptr %303, i32 0, i32 0
  store ptr %302, ptr %304, align 8, !tbaa !22
  %305 = load ptr, ptr %8, align 8, !tbaa !21
  %306 = load i64, ptr %7, align 8, !tbaa !20
  %307 = getelementptr inbounds nuw i8, ptr %305, i64 %306
  %308 = load ptr, ptr %8, align 8, !tbaa !21
  %309 = getelementptr inbounds nuw %struct._zend_arena, ptr %308, i32 0, i32 1
  store ptr %307, ptr %309, align 8, !tbaa !26
  %310 = load ptr, ptr %5, align 8, !tbaa !21
  %311 = load ptr, ptr %8, align 8, !tbaa !21
  %312 = getelementptr inbounds nuw %struct._zend_arena, ptr %311, i32 0, i32 2
  store ptr %310, ptr %312, align 8, !tbaa !27
  %313 = load ptr, ptr %8, align 8, !tbaa !21
  %314 = load ptr, ptr %3, align 8, !tbaa !18
  store ptr %313, ptr %314, align 8, !tbaa !21
  call void @llvm.lifetime.end.p0(i64 8, ptr %8) #13
  call void @llvm.lifetime.end.p0(i64 8, ptr %7) #13
  br label %315

315:                                              ; preds = %295, %33
  %316 = load ptr, ptr %6, align 8, !tbaa !25
  call void @llvm.lifetime.end.p0(i64 8, ptr %6) #13
  call void @llvm.lifetime.end.p0(i64 8, ptr %5) #13
  ret ptr %316
}

; Function Attrs: nounwind uwtable
define hidden void @zend_optimizer_collect_constant(ptr noundef %0, ptr noundef %1, ptr noundef %2) #0 {
  %4 = alloca ptr, align 8
  %5 = alloca ptr, align 8
  %6 = alloca ptr, align 8
  %7 = alloca ptr, align 8
  store ptr %0, ptr %4, align 8, !tbaa !4
  store ptr %1, ptr %5, align 8, !tbaa !9
  store ptr %2, ptr %6, align 8, !tbaa !9
  %8 = load ptr, ptr %4, align 8, !tbaa !4
  %9 = getelementptr inbounds nuw %struct._zend_optimizer_ctx, ptr %8, i32 0, i32 2
  %10 = load ptr, ptr %9, align 8, !tbaa !11
  %11 = icmp ne ptr %10, null
  br i1 %11, label %21, label %12

12:                                               ; preds = %3
  %13 = load ptr, ptr %4, align 8, !tbaa !4
  %14 = getelementptr inbounds nuw %struct._zend_optimizer_ctx, ptr %13, i32 0, i32 0
  %15 = call ptr @zend_arena_alloc(ptr noundef %14, i64 noundef 56)
  %16 = load ptr, ptr %4, align 8, !tbaa !4
  %17 = getelementptr inbounds nuw %struct._zend_optimizer_ctx, ptr %16, i32 0, i32 2
  store ptr %15, ptr %17, align 8, !tbaa !11
  %18 = load ptr, ptr %4, align 8, !tbaa !4
  %19 = getelementptr inbounds nuw %struct._zend_optimizer_ctx, ptr %18, i32 0, i32 2
  %20 = load ptr, ptr %19, align 8, !tbaa !11
  call void @_zend_hash_init(ptr noundef %20, i32 noundef 16, ptr noundef @zval_ptr_dtor_nogc, i1 noundef zeroext false)
  br label %21

21:                                               ; preds = %12, %3
  %22 = load ptr, ptr %4, align 8, !tbaa !4
  %23 = getelementptr inbounds nuw %struct._zend_optimizer_ctx, ptr %22, i32 0, i32 2
  %24 = load ptr, ptr %23, align 8, !tbaa !11
  %25 = load ptr, ptr %5, align 8, !tbaa !9
  %26 = getelementptr inbounds nuw %struct._zval_struct, ptr %25, i32 0, i32 0
  %27 = load ptr, ptr %26, align 8, !tbaa !17
  %28 = load ptr, ptr %6, align 8, !tbaa !9
  %29 = call ptr @zend_hash_add(ptr noundef %24, ptr noundef %27, ptr noundef %28)
  %30 = icmp ne ptr %29, null
  br i1 %30, label %31, label %45

31:                                               ; preds = %21
  br label %32

32:                                               ; preds = %31
  call void @llvm.lifetime.start.p0(i64 8, ptr %7) #13
  %33 = load ptr, ptr %6, align 8, !tbaa !9
  store ptr %33, ptr %7, align 8, !tbaa !9
  %34 = load ptr, ptr %7, align 8, !tbaa !9
  %35 = getelementptr inbounds nuw %struct._zval_struct, ptr %34, i32 0, i32 1
  %36 = getelementptr inbounds nuw %struct.anon.1, ptr %35, i32 0, i32 1
  %37 = load i8, ptr %36, align 1, !tbaa !17
  %38 = zext i8 %37 to i32
  %39 = icmp ne i32 %38, 0
  br i1 %39, label %40, label %43

40:                                               ; preds = %32
  %41 = load ptr, ptr %7, align 8, !tbaa !9
  %42 = call i32 @zval_addref_p(ptr noundef %41)
  br label %43

43:                                               ; preds = %40, %32
  call void @llvm.lifetime.end.p0(i64 8, ptr %7) #13
  br label %44

44:                                               ; preds = %43
  br label %45

45:                                               ; preds = %44, %21
  ret void
}