; Function Attrs: nounwind uwtable
define hidden void @zend_optimizer_collect_constant(ptr noundef captures(none) %0, ptr noundef readonly captures(none) %1, ptr noundef %2) local_unnamed_addr #0 {
  %4 = getelementptr inbounds nuw i8, ptr %0, i64 16
  %5 = load ptr, ptr %4, align 8, !tbaa !4
  %.not = icmp eq ptr %5, null
  br i1 %.not, label %6, label %26

6:                                                ; preds = %3
  %7 = load ptr, ptr %0, align 8, !tbaa !13
  %8 = load ptr, ptr %7, align 8, !tbaa !14
  %9 = getelementptr inbounds nuw i8, ptr %7, i64 8
  %10 = load ptr, ptr %9, align 8, !tbaa !17
  %11 = ptrtoint ptr %10 to i64
  %12 = ptrtoint ptr %8 to i64
  %13 = sub i64 %11, %12
  %14 = icmp ugt i64 %13, 55
  br i1 %14, label %15, label %17, !prof !18

15:                                               ; preds = %6
  %16 = getelementptr inbounds nuw i8, ptr %8, i64 56
  store ptr %16, ptr %7, align 8, !tbaa !14
  br label %zend_arena_alloc.exit

17:                                               ; preds = %6
  %18 = ptrtoint ptr %7 to i64
  %19 = sub i64 %11, %18
  %..i = tail call i64 @llvm.umax.i64(i64 %19, i64 80)
  %20 = tail call noalias ptr @_emalloc(i64 noundef %..i) #19
  %21 = getelementptr inbounds nuw i8, ptr %20, i64 24
  %22 = getelementptr inbounds nuw i8, ptr %20, i64 80
  store ptr %22, ptr %20, align 8, !tbaa !14
  %23 = getelementptr inbounds nuw i8, ptr %20, i64 %..i
  %24 = getelementptr inbounds nuw i8, ptr %20, i64 8
  store ptr %23, ptr %24, align 8, !tbaa !17
  %25 = getelementptr inbounds nuw i8, ptr %20, i64 16
  store ptr %7, ptr %25, align 8, !tbaa !19
  store ptr %20, ptr %0, align 8, !tbaa !13
  br label %zend_arena_alloc.exit

zend_arena_alloc.exit:                            ; preds = %15, %17
  %.0.i = phi ptr [ %8, %15 ], [ %21, %17 ]
  store ptr %.0.i, ptr %4, align 8, !tbaa !4
  tail call void @_zend_hash_init(ptr noundef %.0.i, i32 noundef 16, ptr noundef nonnull @zval_ptr_dtor_nogc, i1 noundef zeroext false) #20
  %.pre = load ptr, ptr %4, align 8, !tbaa !4
  br label %26

26:                                               ; preds = %zend_arena_alloc.exit, %3
  %27 = phi ptr [ %.pre, %zend_arena_alloc.exit ], [ %5, %3 ]
  %28 = load ptr, ptr %1, align 8, !tbaa !20
  %29 = tail call ptr @zend_hash_add(ptr noundef %27, ptr noundef %28, ptr noundef %2) #20
  %.not10 = icmp eq ptr %29, null
  br i1 %.not10, label %37, label %30

30:                                               ; preds = %26
  %31 = getelementptr inbounds nuw i8, ptr %2, i64 9
  %32 = load i8, ptr %31, align 1, !tbaa !20
  %.not11 = icmp eq i8 %32, 0
  br i1 %.not11, label %37, label %33

33:                                               ; preds = %30
  %34 = load ptr, ptr %2, align 8, !tbaa !20
  %35 = load i32, ptr %34, align 4, !tbaa !21
  %36 = add i32 %35, 1
  store i32 %36, ptr %34, align 4, !tbaa !21
  br label %37

37:                                               ; preds = %30, %33, %26
  ret void
}